; Function Attrs: cold nounwind optsize uwtable
define internal range(i32 -22, 1) i32 @encode_init(ptr noundef %0) #0 {
  %2 = getelementptr inbounds nuw i8, ptr %0, i64 112
  %3 = load i32, ptr %2, align 8, !tbaa !4
  %4 = and i32 %3, 1
  %.not = icmp eq i32 %4, 0
  br i1 %.not, label %6, label %5

5:                                                ; preds = %1
  tail call void (ptr, i32, ptr, ...) @av_log(ptr noundef nonnull %0, i32 noundef 16, ptr noundef nonnull @.str.2) #7
  br label %17

6:                                                ; preds = %1
  %7 = getelementptr inbounds nuw i8, ptr %0, i64 32
  %8 = load ptr, ptr %7, align 8, !tbaa !27
  store ptr @v210_planar_pack_8_c, ptr %8, align 8, !tbaa !28
  %9 = getelementptr inbounds nuw i8, ptr %8, i64 8
  store ptr @v210_planar_pack_10_c, ptr %9, align 8, !tbaa !30
  %10 = getelementptr inbounds nuw i8, ptr %8, i64 16
  store i32 2, ptr %10, align 8, !tbaa !31
  %11 = getelementptr inbounds nuw i8, ptr %8, i64 20
  store i32 1, ptr %11, align 4, !tbaa !32
  %12 = getelementptr inbounds nuw i8, ptr %0, i64 648
  store i32 20, ptr %12, align 8, !tbaa !33
  %13 = tail call i64 @ff_guess_coded_bitrate(ptr noundef nonnull %0) #7
  %14 = shl nsw i64 %13, 4
  %15 = sdiv i64 %14, 15
  %16 = getelementptr inbounds nuw i8, ptr %0, i64 56
  store i64 %15, ptr %16, align 8, !tbaa !34
  br label %17

17:                                               ; preds = %6, %5
  %.0 = phi i32 [ -22, %5 ], [ 0, %6 ]
  ret i32 %.0
}